; Function Attrs: mustprogress nofree nounwind uwtable
define internal fastcc noundef nonnull ptr @_ZN4llvm16itanium_demangle22AbstractManglingParserINS0_14ManglingParserIN12_GLOBAL__N_116DefaultAllocatorEEES4_E4makeINS0_20NameWithTemplateArgsEJRPNS0_4NodeESB_EEESA_DpOT0_(ptr nocapture noundef nonnull align 16 dereferenceable(4928) %0, ptr nocapture noundef nonnull readonly align 8 dereferenceable(8) %1, ptr nocapture noundef nonnull readonly align 8 dereferenceable(8) %2) unnamed_addr #12 align 2 {
  %4 = getelementptr inbounds i8, ptr %0, i64 4912
  %5 = load ptr, ptr %4, align 16
  %6 = getelementptr inbounds nuw i8, ptr %5, i64 8
  %7 = load i64, ptr %6, align 8
  %8 = add i64 %7, -4048
  %9 = icmp ult i64 %8, -4080
  br i1 %9, label %10, label %_ZN12_GLOBAL__N_116DefaultAllocator8makeNodeIN4llvm16itanium_demangle20NameWithTemplateArgsEJRPNS3_4NodeES7_EEEPT_DpOT0_.exit

10:                                               ; preds = %3
  %11 = tail call noalias dereferenceable_or_null(4096) ptr @malloc(i64 noundef 4096) #23
  %12 = icmp eq ptr %11, null
  br i1 %12, label %13, label %_ZN12_GLOBAL__N_120BumpPointerAllocator4growEv.exit.i.i

13:                                               ; preds = %10
  tail call void @_ZSt9terminatev() #22
  unreachable

_ZN12_GLOBAL__N_120BumpPointerAllocator4growEv.exit.i.i: ; preds = %10
  store ptr %5, ptr %11, align 8
  %14 = getelementptr inbounds nuw i8, ptr %11, i64 8
  store i64 0, ptr %14, align 8
  store ptr %11, ptr %4, align 16
  br label %_ZN12_GLOBAL__N_116DefaultAllocator8makeNodeIN4llvm16itanium_demangle20NameWithTemplateArgsEJRPNS3_4NodeES7_EEEPT_DpOT0_.exit

_ZN12_GLOBAL__N_116DefaultAllocator8makeNodeIN4llvm16itanium_demangle20NameWithTemplateArgsEJRPNS3_4NodeES7_EEEPT_DpOT0_.exit: ; preds = %3, %_ZN12_GLOBAL__N_120BumpPointerAllocator4growEv.exit.i.i
  %15 = phi i64 [ 0, %_ZN12_GLOBAL__N_120BumpPointerAllocator4growEv.exit.i.i ], [ %7, %3 ]
  %16 = phi ptr [ %11, %_ZN12_GLOBAL__N_120BumpPointerAllocator4growEv.exit.i.i ], [ %5, %3 ]
  %17 = getelementptr inbounds nuw i8, ptr %16, i64 8
  %18 = add nsw i64 %15, 32
  store i64 %18, ptr %17, align 8
  %19 = load ptr, ptr %4, align 16
  %20 = getelementptr inbounds i8, ptr %19, i64 16
  %21 = getelementptr inbounds nuw i8, ptr %19, i64 8
  %22 = load i64, ptr %21, align 8
  %23 = getelementptr inbounds i8, ptr %20, i64 %22
  %24 = getelementptr inbounds i8, ptr %23, i64 -32
  %25 = load ptr, ptr %1, align 8
  %26 = load ptr, ptr %2, align 8
  %27 = getelementptr inbounds i8, ptr %23, i64 -24
  store i8 45, ptr %27, align 8
  %28 = getelementptr inbounds i8, ptr %23, i64 -23
  %29 = load i16, ptr %28, align 1
  %30 = and i16 %29, -4096
  %31 = or disjoint i16 %30, 1344
  store i16 %31, ptr %28, align 1
  store ptr getelementptr inbounds inrange(-16, 72) (i8, ptr @_ZTVN4llvm16itanium_demangle20NameWithTemplateArgsE, i64 16), ptr %24, align 8
  %32 = getelementptr inbounds i8, ptr %23, i64 -16
  store ptr %25, ptr %32, align 8
  %33 = getelementptr inbounds i8, ptr %23, i64 -8
  store ptr %26, ptr %33, align 8
  ret ptr %24
}